; Function Attrs: nounwind uwtable
define ptr @Abc_NtkAttrFree(ptr noundef readonly captures(none) %0, i32 noundef %1, i32 noundef %2) local_unnamed_addr #0 {
  %4 = getelementptr inbounds nuw i8, ptr %0, i64 432
  %5 = load ptr, ptr %4, align 8
  %6 = getelementptr i8, ptr %5, i64 8
  %.val = load ptr, ptr %6, align 8
  %7 = sext i32 %1 to i64
  %8 = getelementptr inbounds ptr, ptr %.val, i64 %7
  %9 = load ptr, ptr %8, align 8
  store ptr null, ptr %8, align 8
  %10 = icmp eq ptr %9, null
  br i1 %10, label %Vec_AttFree.exit, label %11

11:                                               ; preds = %3
  %12 = getelementptr inbounds nuw i8, ptr %9, i64 40
  %13 = load ptr, ptr %12, align 8
  %.not.i = icmp eq ptr %13, null
  br i1 %.not.i, label %.loopexit.i, label %.preheader.i

.preheader.i:                                     ; preds = %11
  %14 = load i32, ptr %9, align 8
  %15 = icmp sgt i32 %14, 0
  br i1 %15, label %.lr.ph.i, label %.loopexit.i

.lr.ph.i:                                         ; preds = %.preheader.i
  %16 = getelementptr inbounds nuw i8, ptr %9, i64 8
  %17 = getelementptr inbounds nuw i8, ptr %9, i64 16
  br label %18

18:                                               ; preds = %26, %.lr.ph.i
  %19 = phi i32 [ %14, %.lr.ph.i ], [ %27, %26 ]
  %indvars.iv.i = phi i64 [ 0, %.lr.ph.i ], [ %indvars.iv.next.i, %26 ]
  %20 = load ptr, ptr %16, align 8
  %21 = getelementptr inbounds nuw ptr, ptr %20, i64 %indvars.iv.i
  %22 = load ptr, ptr %21, align 8
  %.not30.i = icmp eq ptr %22, null
  br i1 %.not30.i, label %26, label %23

23:                                               ; preds = %18
  %24 = load ptr, ptr %12, align 8
  %25 = load ptr, ptr %17, align 8
  tail call void %24(ptr noundef %25, ptr noundef nonnull %22) #28
  %.pre.i = load i32, ptr %9, align 8
  br label %26

26:                                               ; preds = %23, %18
  %27 = phi i32 [ %19, %18 ], [ %.pre.i, %23 ]
  %indvars.iv.next.i = add nuw nsw i64 %indvars.iv.i, 1
  %28 = sext i32 %27 to i64
  %29 = icmp slt i64 %indvars.iv.next.i, %28
  br i1 %29, label %18, label %.loopexit.i, !llvm.loop !4

.loopexit.i:                                      ; preds = %26, %.preheader.i, %11
  %.not32.i = icmp eq i32 %2, 0
  %30 = getelementptr inbounds nuw i8, ptr %9, i64 16
  %31 = load ptr, ptr %30, align 8
  br i1 %.not32.i, label %.thread.i, label %32

32:                                               ; preds = %.loopexit.i
  %.not33.i = icmp eq ptr %31, null
  br i1 %.not33.i, label %.thread.i, label %33

33:                                               ; preds = %32
  %34 = getelementptr inbounds nuw i8, ptr %9, i64 24
  %35 = load ptr, ptr %34, align 8
  tail call void %35(ptr noundef nonnull %31) #28
  br label %.thread.i

.thread.i:                                        ; preds = %33, %32, %.loopexit.i
  %36 = phi ptr [ null, %33 ], [ null, %32 ], [ %31, %.loopexit.i ]
  %37 = getelementptr inbounds nuw i8, ptr %9, i64 8
  %38 = load ptr, ptr %37, align 8
  %.not29.i = icmp eq ptr %38, null
  br i1 %.not29.i, label %40, label %39

39:                                               ; preds = %.thread.i
  tail call void @free(ptr noundef nonnull %38) #28
  br label %40

40:                                               ; preds = %39, %.thread.i
  tail call void @free(ptr noundef nonnull %9) #28
  br label %Vec_AttFree.exit

Vec_AttFree.exit:                                 ; preds = %3, %40
  %.024.i = phi ptr [ %36, %40 ], [ null, %3 ]
  ret ptr %.024.i
}